target datalayout = "e-m:e-p270:32:32-p271:32:32-p272:64:64-i64:64-i128:128-f80:128-n8:16:32:64-S128"
target triple = "x86_64-pc-linux-gnu"

%struct.AVFilterContext = type { ptr, ptr, ptr, ptr, ptr, i32, ptr, ptr, i32, ptr, ptr, i32, i32, ptr, ptr, ptr, ptr, i32, ptr, i32, i32 }
%struct.JoinContext = type { ptr, i32, ptr, %struct.AVChannelLayout, i64, i32, ptr, ptr, ptr }
%struct.AVChannelLayout = type { i32, i32, %union.anon.1, ptr }
%union.anon.1 = type { i64 }
%struct.AVFilterFormatsConfig = type { ptr, ptr, ptr, ptr, ptr }

; Function Attrs: nounwind uwtable
define internal i32 @join_query_formats(ptr noundef %0, ptr noundef %1, ptr noundef %2) #1 {
  %4 = alloca i32, align 4
  %5 = alloca ptr, align 8
  %6 = alloca ptr, align 8
  %7 = alloca ptr, align 8
  %8 = alloca ptr, align 8
  %9 = alloca ptr, align 8
  %10 = alloca i32, align 4
  %11 = alloca i32, align 4
  %12 = alloca i32, align 4
  store ptr %0, ptr %5, align 8, !tbaa !4
  store ptr %1, ptr %6, align 8, !tbaa !48
  store ptr %2, ptr %7, align 8, !tbaa !48
  call void @llvm.lifetime.start.p0(i64 8, ptr %8) #11
  %13 = load ptr, ptr %5, align 8, !tbaa !4
  %14 = getelementptr inbounds nuw %struct.AVFilterContext, ptr %13, i32 0, i32 9
  %15 = load ptr, ptr %14, align 8, !tbaa !9
  store ptr %15, ptr %8, align 8, !tbaa !22
  call void @llvm.lifetime.start.p0(i64 8, ptr %9) #11
  store ptr null, ptr %9, align 8, !tbaa !50
  call void @llvm.lifetime.start.p0(i64 4, ptr %10) #11
  call void @llvm.lifetime.start.p0(i64 4, ptr %11) #11
  %16 = load ptr, ptr %8, align 8, !tbaa !22
  %17 = getelementptr inbounds nuw %struct.JoinContext, ptr %16, i32 0, i32 3
  %18 = call i32 @ff_add_channel_layout(ptr noundef %9, ptr noundef %17)
  store i32 %18, ptr %11, align 4, !tbaa !35
  %19 = icmp slt i32 %18, 0
  br i1 %19, label %28, label %20

20:                                               ; preds = %3
  %21 = load ptr, ptr %9, align 8, !tbaa !50
  %22 = load ptr, ptr %7, align 8, !tbaa !48
  %23 = getelementptr inbounds ptr, ptr %22, i64 0
  %24 = load ptr, ptr %23, align 8, !tbaa !52
  %25 = getelementptr inbounds nuw %struct.AVFilterFormatsConfig, ptr %24, i32 0, i32 2
  %26 = call i32 @ff_channel_layouts_ref(ptr noundef %21, ptr noundef %25)
  store i32 %26, ptr %11, align 4, !tbaa !35
  %27 = icmp slt i32 %26, 0
  br i1 %27, label %28, label %30

28:                                               ; preds = %20, %3
  %29 = load i32, ptr %11, align 4, !tbaa !35
  store i32 %29, ptr %4, align 4
  store i32 1, ptr %12, align 4
  br label %64

30:                                               ; preds = %20
  store i32 0, ptr %10, align 4, !tbaa !35
  br label %31

31:                                               ; preds = %51, %30
  %32 = load i32, ptr %10, align 4, !tbaa !35
  %33 = load ptr, ptr %5, align 8, !tbaa !4
  %34 = getelementptr inbounds nuw %struct.AVFilterContext, ptr %33, i32 0, i32 5
  %35 = load i32, ptr %34, align 8, !tbaa !54
  %36 = icmp ult i32 %32, %35
  br i1 %36, label %37, label %54

37:                                               ; preds = %31
  %38 = call ptr @ff_all_channel_layouts()
  store ptr %38, ptr %9, align 8, !tbaa !50
  %39 = load ptr, ptr %9, align 8, !tbaa !50
  %40 = load ptr, ptr %6, align 8, !tbaa !48
  %41 = load i32, ptr %10, align 4, !tbaa !35
  %42 = sext i32 %41 to i64
  %43 = getelementptr inbounds ptr, ptr %40, i64 %42
  %44 = load ptr, ptr %43, align 8, !tbaa !52
  %45 = getelementptr inbounds nuw %struct.AVFilterFormatsConfig, ptr %44, i32 0, i32 2
  %46 = call i32 @ff_channel_layouts_ref(ptr noundef %39, ptr noundef %45)
  store i32 %46, ptr %11, align 4, !tbaa !35
  %47 = icmp slt i32 %46, 0
  br i1 %47, label %48, label %50

48:                                               ; preds = %37
  %49 = load i32, ptr %11, align 4, !tbaa !35
  store i32 %49, ptr %4, align 4
  store i32 1, ptr %12, align 4
  br label %64

50:                                               ; preds = %37
  br label %51

51:                                               ; preds = %50
  %52 = load i32, ptr %10, align 4, !tbaa !35
  %53 = add nsw i32 %52, 1
  store i32 %53, ptr %10, align 4, !tbaa !35
  br label %31, !llvm.loop !55

54:                                               ; preds = %31
  %55 = load ptr, ptr %5, align 8, !tbaa !4
  %56 = load ptr, ptr %6, align 8, !tbaa !48
  %57 = load ptr, ptr %7, align 8, !tbaa !48
  %58 = call ptr @ff_planar_sample_fmts()
  %59 = call i32 @ff_set_common_formats2(ptr noundef %55, ptr noundef %56, ptr noundef %57, ptr noundef %58)
  store i32 %59, ptr %11, align 4, !tbaa !35
  %60 = icmp slt i32 %59, 0
  br i1 %60, label %61, label %63

61:                                               ; preds = %54
  %62 = load i32, ptr %11, align 4, !tbaa !35
  store i32 %62, ptr %4, align 4
  store i32 1, ptr %12, align 4
  br label %64

63:                                               ; preds = %54
  store i32 0, ptr %4, align 4
  store i32 1, ptr %12, align 4
  br label %64

64:                                               ; preds = %63, %61, %48, %28
  call void @llvm.lifetime.end.p0(i64 4, ptr %11) #11
  call void @llvm.lifetime.end.p0(i64 4, ptr %10) #11
  call void @llvm.lifetime.end.p0(i64 8, ptr %9) #11
  call void @llvm.lifetime.end.p0(i64 8, ptr %8) #11
  %65 = load i32, ptr %4, align 4
  ret i32 %65
}