; Function Attrs: nounwind uwtable
define internal range(i32 -2147483648, 1) i32 @join_query_formats(ptr noundef %0, ptr noundef %1, ptr noundef %2) #1 {
  %4 = alloca ptr, align 8
  %5 = getelementptr inbounds nuw i8, ptr %0, i64 72
  %6 = load ptr, ptr %5, align 8, !tbaa !4
  call void @llvm.lifetime.start.p0(i64 8, ptr nonnull %4) #11
  store ptr null, ptr %4, align 8, !tbaa !47
  %7 = getelementptr inbounds nuw i8, ptr %6, i64 24
  %8 = call i32 @ff_add_channel_layout(ptr noundef nonnull %4, ptr noundef nonnull %7) #11
  %9 = icmp slt i32 %8, 0
  br i1 %9, label %.loopexit, label %10

10:                                               ; preds = %3
  %11 = load ptr, ptr %4, align 8, !tbaa !47
  %12 = load ptr, ptr %2, align 8, !tbaa !49
  %13 = getelementptr inbounds nuw i8, ptr %12, i64 16
  %14 = call i32 @ff_channel_layouts_ref(ptr noundef %11, ptr noundef nonnull %13) #11
  %15 = icmp slt i32 %14, 0
  br i1 %15, label %.loopexit, label %.preheader

.preheader:                                       ; preds = %10
  %16 = getelementptr inbounds nuw i8, ptr %0, i64 40
  %17 = load i32, ptr %16, align 8, !tbaa !51
  %.not = icmp eq i32 %17, 0
  br i1 %.not, label %._crit_edge, label %.lr.ph

18:                                               ; preds = %.lr.ph
  %indvars.iv.next = add nuw nsw i64 %indvars.iv, 1
  %19 = load i32, ptr %16, align 8, !tbaa !51
  %20 = zext i32 %19 to i64
  %21 = icmp samesign ult i64 %indvars.iv.next, %20
  br i1 %21, label %.lr.ph, label %._crit_edge, !llvm.loop !52

.lr.ph:                                           ; preds = %.preheader, %18
  %indvars.iv = phi i64 [ %indvars.iv.next, %18 ], [ 0, %.preheader ]
  %22 = call ptr @ff_all_channel_layouts() #11
  store ptr %22, ptr %4, align 8, !tbaa !47
  %23 = getelementptr inbounds nuw ptr, ptr %1, i64 %indvars.iv
  %24 = load ptr, ptr %23, align 8, !tbaa !49
  %25 = getelementptr inbounds nuw i8, ptr %24, i64 16
  %26 = call i32 @ff_channel_layouts_ref(ptr noundef %22, ptr noundef nonnull %25) #11
  %27 = icmp slt i32 %26, 0
  br i1 %27, label %.loopexit, label %18

._crit_edge:                                      ; preds = %18, %.preheader
  %28 = call ptr @ff_planar_sample_fmts() #11
  %29 = call i32 @ff_set_common_formats2(ptr noundef nonnull %0, ptr noundef %1, ptr noundef nonnull %2, ptr noundef %28) #11
  %. = call i32 @llvm.smin.i32(i32 %29, i32 0)
  br label %.loopexit

.loopexit:                                        ; preds = %.lr.ph, %._crit_edge, %3, %10
  %.015 = phi i32 [ %8, %3 ], [ %14, %10 ], [ %., %._crit_edge ], [ %26, %.lr.ph ]
  call void @llvm.lifetime.end.p0(i64 8, ptr nonnull %4) #11
  ret i32 %.015
}